; Function Attrs: mustprogress nounwind uwtable
define void @zmq_atomic_counter_destroy(ptr noundef captures(none) %0) local_unnamed_addr #13 {
  %2 = load ptr, ptr %0, align 8, !tbaa !39
  %3 = icmp eq ptr %2, null
  br i1 %3, label %5, label %4

4:                                                ; preds = %1
  tail call void @_ZdlPv(ptr noundef nonnull %2) #23
  br label %5

5:                                                ; preds = %4, %1
  store ptr null, ptr %0, align 8, !tbaa !39
  ret void
}